target datalayout = "e-m:e-p270:32:32-p271:32:32-p272:64:64-i64:64-i128:128-f80:128-n8:16:32:64-S128"
target triple = "x86_64-pc-linux-gnu"

@_ZN19InstanceMirrorKlass24_offset_of_static_fieldsE = external global i32, align 4

; Function Attrs: mustprogress nounwind uwtable
define linkonce_odr hidden noundef ptr @_ZN10ciMetadata17as_instance_klassEv(ptr noundef nonnull align 8 dereferenceable(24) %0) #1 comdat align 2 {
  %2 = alloca ptr, align 8
  store ptr %0, ptr %2, align 8
  %3 = load ptr, ptr %2, align 8
  ret ptr %3
}

; Function Attrs: mustprogress nounwind uwtable
define linkonce_odr hidden noundef i32 @_ZN19InstanceMirrorKlass23offset_of_static_fieldsEv() #1 comdat align 2 {
  %1 = load i32, ptr @_ZN19InstanceMirrorKlass24_offset_of_static_fieldsE, align 4
  ret i32 %1
}

; Function Attrs: mustprogress nounwind uwtable
define hidden noundef ptr @_ZN4Type24make_constant_from_fieldEP10ciInstanceib9BasicType(ptr noundef %0, i32 noundef %1, i1 noundef zeroext %2, i8 noundef zeroext %3) #1 align 2 {
  %5 = alloca ptr, align 8
  %6 = alloca ptr, align 8
  %7 = alloca i32, align 4
  %8 = alloca i8, align 1
  %9 = alloca i8, align 1
  %10 = alloca ptr, align 8
  %11 = alloca ptr, align 8
  store ptr %0, ptr %6, align 8
  store i32 %1, ptr %7, align 4
  %12 = zext i1 %2 to i8
  store i8 %12, ptr %8, align 1
  store i8 %3, ptr %9, align 1
  %13 = load ptr, ptr %6, align 8
  %14 = call noundef ptr @_ZN10ciInstance16java_mirror_typeEv(ptr noundef nonnull align 8 dereferenceable(40) %13)
  store ptr %14, ptr %11, align 8
  %15 = load ptr, ptr %11, align 8
  %16 = icmp ne ptr %15, null
  br i1 %16, label %17, label %32

17:                                               ; preds = %4
  %18 = load ptr, ptr %11, align 8
  %19 = load ptr, ptr %18, align 8
  %20 = getelementptr inbounds ptr, ptr %19, i64 10
  %21 = load ptr, ptr %20, align 8
  %22 = call noundef zeroext i1 %21(ptr noundef nonnull align 8 dereferenceable(24) %18)
  br i1 %22, label %23, label %32

23:                                               ; preds = %17
  %24 = load i32, ptr %7, align 4
  %25 = call noundef i32 @_ZN19InstanceMirrorKlass23offset_of_static_fieldsEv()
  %26 = icmp sge i32 %24, %25
  br i1 %26, label %27, label %32

27:                                               ; preds = %23
  %28 = load ptr, ptr %11, align 8
  %29 = call noundef ptr @_ZN10ciMetadata17as_instance_klassEv(ptr noundef nonnull align 8 dereferenceable(24) %28)
  %30 = load i32, ptr %7, align 4
  %31 = call noundef ptr @_ZN15ciInstanceKlass19get_field_by_offsetEib(ptr noundef nonnull align 8 dereferenceable(144) %29, i32 noundef %30, i1 noundef zeroext true)
  store ptr %31, ptr %10, align 8
  br label %38

32:                                               ; preds = %23, %17, %4
  %33 = load ptr, ptr %6, align 8
  %34 = call noundef ptr @_ZN8ciObject5klassEv(ptr noundef nonnull align 8 dereferenceable(40) %33)
  %35 = call noundef ptr @_ZN10ciMetadata17as_instance_klassEv(ptr noundef nonnull align 8 dereferenceable(24) %34)
  %36 = load i32, ptr %7, align 4
  %37 = call noundef ptr @_ZN15ciInstanceKlass19get_field_by_offsetEib(ptr noundef nonnull align 8 dereferenceable(144) %35, i32 noundef %36, i1 noundef zeroext false)
  store ptr %37, ptr %10, align 8
  br label %38

38:                                               ; preds = %32, %27
  %39 = load ptr, ptr %10, align 8
  %40 = icmp eq ptr %39, null
  br i1 %40, label %41, label %42

41:                                               ; preds = %38
  store ptr null, ptr %5, align 8
  br label %49

42:                                               ; preds = %38
  %43 = load ptr, ptr %10, align 8
  %44 = load ptr, ptr %6, align 8
  %45 = load i8, ptr %9, align 1
  %46 = load i8, ptr %8, align 1
  %47 = trunc i8 %46 to i1
  %48 = call noundef ptr @_ZN4Type24make_constant_from_fieldEP7ciFieldP10ciInstance9BasicTypeb(ptr noundef %43, ptr noundef %44, i8 noundef zeroext %45, i1 noundef zeroext %47)
  store ptr %48, ptr %5, align 8
  br label %49

49:                                               ; preds = %42, %41
  %50 = load ptr, ptr %5, align 8
  ret ptr %50
}