; Function Attrs: mustprogress nounwind uwtable
define hidden noundef ptr @_ZN4Type24make_constant_from_fieldEP10ciInstanceib9BasicType(ptr noundef nonnull %0, i32 noundef %1, i1 noundef zeroext %2, i8 noundef zeroext %3) local_unnamed_addr #0 align 2 {
  %5 = tail call noundef ptr @_ZN10ciInstance16java_mirror_typeEv(ptr noundef nonnull align 8 dereferenceable(40) %0) #17
  %.not = icmp eq ptr %5, null
  br i1 %.not, label %14, label %6

6:                                                ; preds = %4
  %7 = load ptr, ptr %5, align 8
  %8 = getelementptr inbounds i8, ptr %7, i64 80
  %9 = load ptr, ptr %8, align 8
  %10 = tail call noundef zeroext i1 %9(ptr noundef nonnull align 8 dereferenceable(24) %5) #17
  %11 = load i32, ptr @_ZN19InstanceMirrorKlass24_offset_of_static_fieldsE, align 4
  %.not16 = icmp sle i32 %11, %1
  %or.cond.not = select i1 %10, i1 %.not16, i1 false
  br i1 %or.cond.not, label %12, label %14

12:                                               ; preds = %6
  %13 = tail call noundef ptr @_ZN15ciInstanceKlass19get_field_by_offsetEib(ptr noundef nonnull align 8 dereferenceable(144) %5, i32 noundef %1, i1 noundef zeroext true) #17
  br label %17

14:                                               ; preds = %6, %4
  %15 = tail call noundef ptr @_ZN8ciObject5klassEv(ptr noundef nonnull align 8 dereferenceable(40) %0) #17
  %16 = tail call noundef ptr @_ZN15ciInstanceKlass19get_field_by_offsetEib(ptr noundef nonnull align 8 dereferenceable(144) %15, i32 noundef %1, i1 noundef zeroext false) #17
  br label %17

17:                                               ; preds = %14, %12
  %.013 = phi ptr [ %13, %12 ], [ %16, %14 ]
  %18 = icmp eq ptr %.013, null
  br i1 %18, label %21, label %19

19:                                               ; preds = %17
  %20 = tail call noundef ptr @_ZN4Type24make_constant_from_fieldEP7ciFieldP10ciInstance9BasicTypeb(ptr noundef nonnull %.013, ptr noundef nonnull %0, i8 noundef zeroext %3, i1 noundef zeroext %2)
  br label %21

21:                                               ; preds = %17, %19
  %.0 = phi ptr [ %20, %19 ], [ null, %17 ]
  ret ptr %.0
}